target datalayout = "e-m:e-p270:32:32-p271:32:32-p272:64:64-i64:64-i128:128-f80:128-n8:16:32:64-S128"
target triple = "x86_64-pc-linux-gnu"

; Function Attrs: nounwind uwtable
define dso_local i32 @mp_safe(ptr noundef %0) #0 {
  %2 = alloca i32, align 4
  %3 = alloca ptr, align 8
  %4 = alloca i32, align 4
  %5 = alloca i32, align 4
  %6 = alloca i32, align 4
  %7 = alloca i32, align 4
  store ptr %0, ptr %3, align 8, !tbaa !17
  call void @llvm.lifetime.start.p0(i64 4, ptr %4) #6
  call void @llvm.lifetime.start.p0(i64 4, ptr %5) #6
  call void @llvm.lifetime.start.p0(i64 4, ptr %6) #6
  %8 = load ptr, ptr %3, align 8, !tbaa !17
  %9 = call i32 @lua_gettop(ptr noundef %8)
  store i32 %9, ptr %4, align 4, !tbaa !12
  %10 = load ptr, ptr %3, align 8, !tbaa !17
  call void @lua_pushvalue(ptr noundef %10, i32 noundef -10003)
  %11 = load ptr, ptr %3, align 8, !tbaa !17
  call void @lua_insert(ptr noundef %11, i32 noundef 1)
  %12 = load ptr, ptr %3, align 8, !tbaa !17
  %13 = load i32, ptr %4, align 4, !tbaa !12
  %14 = call i32 @lua_pcall(ptr noundef %12, i32 noundef %13, i32 noundef -1, i32 noundef 0)
  store i32 %14, ptr %5, align 4, !tbaa !12
  %15 = load ptr, ptr %3, align 8, !tbaa !17
  %16 = call i32 @lua_gettop(ptr noundef %15)
  store i32 %16, ptr %6, align 4, !tbaa !12
  %17 = load i32, ptr %5, align 4, !tbaa !12
  %18 = icmp ne i32 %17, 0
  br i1 %18, label %21, label %19

19:                                               ; preds = %1
  %20 = load i32, ptr %6, align 4, !tbaa !12
  store i32 %20, ptr %2, align 4
  store i32 1, ptr %7, align 4
  br label %24

21:                                               ; preds = %1
  %22 = load ptr, ptr %3, align 8, !tbaa !17
  call void @lua_pushnil(ptr noundef %22)
  %23 = load ptr, ptr %3, align 8, !tbaa !17
  call void @lua_insert(ptr noundef %23, i32 noundef -2)
  store i32 2, ptr %2, align 4
  store i32 1, ptr %7, align 4
  br label %24

24:                                               ; preds = %21, %19
  call void @llvm.lifetime.end.p0(i64 4, ptr %6) #6
  call void @llvm.lifetime.end.p0(i64 4, ptr %5) #6
  call void @llvm.lifetime.end.p0(i64 4, ptr %4) #6
  %25 = load i32, ptr %2, align 4
  ret i32 %25
}