; Function Attrs: nounwind uwtable
define dso_local i32 @mp_safe(ptr noundef %0) #2 {
  %2 = tail call i32 @lua_gettop(ptr noundef %0) #10
  tail call void @lua_pushvalue(ptr noundef %0, i32 noundef -10003) #10
  tail call void @lua_insert(ptr noundef %0, i32 noundef 1) #10
  %3 = tail call i32 @lua_pcall(ptr noundef %0, i32 noundef %2, i32 noundef -1, i32 noundef 0) #10
  %4 = tail call i32 @lua_gettop(ptr noundef %0) #10
  %.not = icmp eq i32 %3, 0
  br i1 %.not, label %6, label %5

5:                                                ; preds = %1
  tail call void @lua_pushnil(ptr noundef %0) #10
  tail call void @lua_insert(ptr noundef %0, i32 noundef -2) #10
  br label %6

6:                                                ; preds = %1, %5
  %.0 = phi i32 [ 2, %5 ], [ %4, %1 ]
  ret i32 %.0
}